; ModuleID = '56/2948.c'
source_filename = "56/2948.c"
target datalayout = "e-m:e-p270:32:32-p271:32:32-p272:64:64-i64:64-f80:128-n8:16:32:64-S128"
target triple = "x86_64-pc-linux-gnu"

@.str = private unnamed_addr constant [3 x i8] c"%d\00", align 1

; Function Attrs: noinline nounwind uwtable
define dso_local i32 @main() #0 {
  %1 = alloca i32, align 4
  %2 = alloca i32, align 4
  %3 = alloca [5 x i32], align 16
  %4 = alloca i32, align 4
  %5 = alloca i32, align 4
  %6 = alloca i32, align 4
  %7 = alloca i32, align 4
  store i32 0, i32* %1, align 4
  store i32 0, i32* %6, align 4
  %8 = call i32 (i8*, ...) @__isoc99_scanf(i8* getelementptr inbounds ([3 x i8], [3 x i8]* @.str, i64 0, i64 0), i32* %2)
  %9 = load i32, i32* %2, align 4
  %10 = sdiv i32 %9, 10000
  %11 = getelementptr inbounds [5 x i32], [5 x i32]* %3, i64 0, i64 0
  store i32 %10, i32* %11, align 16
  %12 = load i32, i32* %2, align 4
  %13 = sdiv i32 %12, 1000
  %14 = getelementptr inbounds [5 x i32], [5 x i32]* %3, i64 0, i64 0
  %15 = load i32, i32* %14, align 16
  %16 = mul nsw i32 10, %15
  %17 = sub nsw i32 %13, %16
  %18 = getelementptr inbounds [5 x i32], [5 x i32]* %3, i64 0, i64 1
  store i32 %17, i32* %18, align 4
  %19 = load i32, i32* %2, align 4
  %20 = sdiv i32 %19, 100
  %21 = getelementptr inbounds [5 x i32], [5 x i32]* %3, i64 0, i64 1
  %22 = load i32, i32* %21, align 4
  %23 = mul nsw i32 10, %22
  %24 = sub nsw i32 %20, %23
  %25 = getelementptr inbounds [5 x i32], [5 x i32]* %3, i64 0, i64 0
  %26 = load i32, i32* %25, align 16
  %27 = mul nsw i32 100, %26
  %28 = sub nsw i32 %24, %27
  %29 = getelementptr inbounds [5 x i32], [5 x i32]* %3, i64 0, i64 2
  store i32 %28, i32* %29, align 8
  %30 = load i32, i32* %2, align 4
  %31 = sdiv i32 %30, 10
  %32 = getelementptr inbounds [5 x i32], [5 x i32]* %3, i64 0, i64 2
  %33 = load i32, i32* %32, align 8
  %34 = mul nsw i32 10, %33
  %35 = sub nsw i32 %31, %34
  %36 = getelementptr inbounds [5 x i32], [5 x i32]* %3, i64 0, i64 1
  %37 = load i32, i32* %36, align 4
  %38 = mul nsw i32 100, %37
  %39 = sub nsw i32 %35, %38
  %40 = getelementptr inbounds [5 x i32], [5 x i32]* %3, i64 0, i64 0
  %41 = load i32, i32* %40, align 16
  %42 = mul nsw i32 1000, %41
  %43 = sub nsw i32 %39, %42
  %44 = getelementptr inbounds [5 x i32], [5 x i32]* %3, i64 0, i64 3
  store i32 %43, i32* %44, align 4
  %45 = load i32, i32* %2, align 4
  %46 = getelementptr inbounds [5 x i32], [5 x i32]* %3, i64 0, i64 3
  %47 = load i32, i32* %46, align 4
  %48 = mul nsw i32 10, %47
  %49 = sub nsw i32 %45, %48
  %50 = getelementptr inbounds [5 x i32], [5 x i32]* %3, i64 0, i64 2
  %51 = load i32, i32* %50, align 8
  %52 = mul nsw i32 100, %51
  %53 = sub nsw i32 %49, %52
  %54 = getelementptr inbounds [5 x i32], [5 x i32]* %3, i64 0, i64 1
  %55 = load i32, i32* %54, align 4
  %56 = mul nsw i32 1000, %55
  %57 = sub nsw i32 %53, %56
  %58 = getelementptr inbounds [5 x i32], [5 x i32]* %3, i64 0, i64 0
  %59 = load i32, i32* %58, align 16
  %60 = mul nsw i32 10000, %59
  %61 = sub nsw i32 %57, %60
  %62 = getelementptr inbounds [5 x i32], [5 x i32]* %3, i64 0, i64 4
  store i32 %61, i32* %62, align 16
  store i32 0, i32* %4, align 4
  br label %63

63:                                               ; preds = %75, %0
  %64 = load i32, i32* %4, align 4
  %65 = icmp sle i32 %64, 4
  br i1 %65, label %66, label %78

66:                                               ; preds = %63
  %67 = load i32, i32* %4, align 4
  %68 = sext i32 %67 to i64
  %69 = getelementptr inbounds [5 x i32], [5 x i32]* %3, i64 0, i64 %68
  %70 = load i32, i32* %69, align 4
  %71 = icmp ne i32 %70, 0
  br i1 %71, label %72, label %74

72:                                               ; preds = %66
  %73 = load i32, i32* %4, align 4
  store i32 %73, i32* %5, align 4
  br label %78

74:                                               ; preds = %66
  br label %75

75:                                               ; preds = %74
  %76 = load i32, i32* %4, align 4
  %77 = add nsw i32 %76, 1
  store i32 %77, i32* %4, align 4
  br label %63

78:                                               ; preds = %72, %63
  store i32 4, i32* %4, align 4
  br label %79

79:                                               ; preds = %98, %78
  %80 = load i32, i32* %4, align 4
  %81 = load i32, i32* %5, align 4
  %82 = icmp sge i32 %80, %81
  br i1 %82, label %83, label %101

83:                                               ; preds = %79
  %84 = load i32, i32* %4, align 4
  %85 = load i32, i32* %5, align 4
  %86 = sub nsw i32 %84, %85
  %87 = sitofp i32 %86 to double
  %88 = call double @pow(double 1.000000e+01, double %87) #3
  %89 = fptosi double %88 to i32
  store i32 %89, i32* %7, align 4
  %90 = load i32, i32* %4, align 4
  %91 = sext i32 %90 to i64
  %92 = getelementptr inbounds [5 x i32], [5 x i32]* %3, i64 0, i64 %91
  %93 = load i32, i32* %92, align 4
  %94 = load i32, i32* %7, align 4
  %95 = mul nsw i32 %93, %94
  %96 = load i32, i32* %6, align 4
  %97 = add nsw i32 %96, %95
  store i32 %97, i32* %6, align 4
  br label %98

98:                                               ; preds = %83
  %99 = load i32, i32* %4, align 4
  %100 = add nsw i32 %99, -1
  store i32 %100, i32* %4, align 4
  br label %79

101:                                              ; preds = %79
  %102 = load i32, i32* %6, align 4
  %103 = call i32 (i8*, ...) @printf(i8* getelementptr inbounds ([3 x i8], [3 x i8]* @.str, i64 0, i64 0), i32 %102)
  ret i32 0
}

declare dso_local i32 @__isoc99_scanf(i8*, ...) #1

; Function Attrs: nounwind
declare dso_local double @pow(double, double) #2

declare dso_local i32 @printf(i8*, ...) #1


!llvm.module.flags = !{!0}
!llvm.ident = !{!1}

!0 = !{i32 1, !"wchar_size", i32 4}
!1 = !{!"clang version 10.0.0-4ubuntu1 "}
